target datalayout = "e-m:e-p270:32:32-p271:32:32-p272:64:64-i64:64-i128:128-f80:128-n8:16:32:64-S128"
target triple = "x86_64-pc-linux-gnu"

%"class.icu_77::UObject" = type { ptr }
%"class.icu_77::Calendar" = type <{ %"class.icu_77::UObject", [24 x i32], [24 x i8], i8, [7 x i8], double, ptr, i8, i16, i8, i32, i32, i32, i8, i8, i16, [4 x i8], ptr, ptr }>

; Function Attrs: inlinehint mustprogress nounwind uwtable
define linkonce_odr noundef i32 @_ZNK6icu_778Calendar11internalGetE19UCalendarDateFields(ptr noundef nonnull align 8 dereferenceable(192) %0, i32 noundef %1) #2 comdat align 2 {
  %3 = alloca ptr, align 8
  %4 = alloca i32, align 4
  store ptr %0, ptr %3, align 8, !tbaa !37
  store i32 %1, ptr %4, align 4, !tbaa !106
  %5 = load ptr, ptr %3, align 8
  %6 = getelementptr inbounds nuw %"class.icu_77::Calendar", ptr %5, i32 0, i32 1
  %7 = load i32, ptr %4, align 4, !tbaa !106
  %8 = zext i32 %7 to i64
  %9 = getelementptr inbounds nuw [24 x i32], ptr %6, i64 0, i64 %8
  %10 = load i32, ptr %9, align 4, !tbaa !14
  ret i32 %10
}

; Function Attrs: mustprogress uwtable
define noundef double @_ZN6icu_778Calendar18computeMillisInDayEv(ptr noundef nonnull align 8 dereferenceable(192) %0) #1 align 2 {
  %2 = alloca ptr, align 8
  %3 = alloca double, align 8
  %4 = alloca i32, align 4
  %5 = alloca i32, align 4
  %6 = alloca i32, align 4
  store ptr %0, ptr %2, align 8, !tbaa !37
  %7 = load ptr, ptr %2, align 8
  call void @llvm.lifetime.start.p0(i64 8, ptr %3) #16
  store double 0.000000e+00, ptr %3, align 8, !tbaa !97
  call void @llvm.lifetime.start.p0(i64 4, ptr %4) #16
  %8 = getelementptr inbounds nuw %"class.icu_77::Calendar", ptr %7, i32 0, i32 2
  %9 = getelementptr inbounds nuw [24 x i8], ptr %8, i64 0, i64 11
  %10 = load i8, ptr %9, align 1, !tbaa !70
  %11 = sext i8 %10 to i32
  store i32 %11, ptr %4, align 4, !tbaa !14
  call void @llvm.lifetime.start.p0(i64 4, ptr %5) #16
  %12 = getelementptr inbounds nuw %"class.icu_77::Calendar", ptr %7, i32 0, i32 2
  %13 = getelementptr inbounds nuw [24 x i8], ptr %12, i64 0, i64 10
  %14 = load i8, ptr %13, align 2, !tbaa !70
  %15 = sext i8 %14 to i32
  %16 = getelementptr inbounds nuw %"class.icu_77::Calendar", ptr %7, i32 0, i32 2
  %17 = getelementptr inbounds nuw [24 x i8], ptr %16, i64 0, i64 9
  %18 = load i8, ptr %17, align 1, !tbaa !70
  %19 = sext i8 %18 to i32
  %20 = icmp sgt i32 %15, %19
  br i1 %20, label %21, label %25

21:                                               ; preds = %1
  %22 = getelementptr inbounds nuw %"class.icu_77::Calendar", ptr %7, i32 0, i32 2
  %23 = getelementptr inbounds nuw [24 x i8], ptr %22, i64 0, i64 10
  %24 = load i8, ptr %23, align 2, !tbaa !70
  br label %29

25:                                               ; preds = %1
  %26 = getelementptr inbounds nuw %"class.icu_77::Calendar", ptr %7, i32 0, i32 2
  %27 = getelementptr inbounds nuw [24 x i8], ptr %26, i64 0, i64 9
  %28 = load i8, ptr %27, align 1, !tbaa !70
  br label %29

29:                                               ; preds = %25, %21
  %30 = phi i8 [ %24, %21 ], [ %28, %25 ]
  %31 = sext i8 %30 to i32
  store i32 %31, ptr %5, align 4, !tbaa !14
  call void @llvm.lifetime.start.p0(i64 4, ptr %6) #16
  %32 = load i32, ptr %5, align 4, !tbaa !14
  %33 = load i32, ptr %4, align 4, !tbaa !14
  %34 = icmp sgt i32 %32, %33
  br i1 %34, label %35, label %37

35:                                               ; preds = %29
  %36 = load i32, ptr %5, align 4, !tbaa !14
  br label %39

37:                                               ; preds = %29
  %38 = load i32, ptr %4, align 4, !tbaa !14
  br label %39

39:                                               ; preds = %37, %35
  %40 = phi i32 [ %36, %35 ], [ %38, %37 ]
  store i32 %40, ptr %6, align 4, !tbaa !14
  %41 = load i32, ptr %6, align 4, !tbaa !14
  %42 = icmp ne i32 %41, 0
  br i1 %42, label %43, label %65

43:                                               ; preds = %39
  %44 = load i32, ptr %6, align 4, !tbaa !14
  %45 = load i32, ptr %4, align 4, !tbaa !14
  %46 = icmp eq i32 %44, %45
  br i1 %46, label %47, label %52

47:                                               ; preds = %43
  %48 = call noundef i32 @_ZNK6icu_778Calendar11internalGetE19UCalendarDateFields(ptr noundef nonnull align 8 dereferenceable(192) %7, i32 noundef 11)
  %49 = sitofp i32 %48 to double
  %50 = load double, ptr %3, align 8, !tbaa !97
  %51 = fadd double %50, %49
  store double %51, ptr %3, align 8, !tbaa !97
  br label %64

52:                                               ; preds = %43
  %53 = call noundef i32 @_ZNK6icu_778Calendar11internalGetE19UCalendarDateFields(ptr noundef nonnull align 8 dereferenceable(192) %7, i32 noundef 10)
  %54 = sitofp i32 %53 to double
  %55 = load double, ptr %3, align 8, !tbaa !97
  %56 = fadd double %55, %54
  store double %56, ptr %3, align 8, !tbaa !97
  %57 = call noundef i32 @_ZNK6icu_778Calendar11internalGetE19UCalendarDateFields(ptr noundef nonnull align 8 dereferenceable(192) %7, i32 noundef 9)
  %58 = srem i32 %57, 2
  %59 = icmp eq i32 %58, 0
  %60 = select i1 %59, i32 0, i32 12
  %61 = sitofp i32 %60 to double
  %62 = load double, ptr %3, align 8, !tbaa !97
  %63 = fadd double %62, %61
  store double %63, ptr %3, align 8, !tbaa !97
  br label %64

64:                                               ; preds = %52, %47
  br label %65

65:                                               ; preds = %64, %39
  %66 = load double, ptr %3, align 8, !tbaa !97
  %67 = fmul double %66, 6.000000e+01
  store double %67, ptr %3, align 8, !tbaa !97
  %68 = call noundef i32 @_ZNK6icu_778Calendar11internalGetE19UCalendarDateFields(ptr noundef nonnull align 8 dereferenceable(192) %7, i32 noundef 12)
  %69 = sitofp i32 %68 to double
  %70 = load double, ptr %3, align 8, !tbaa !97
  %71 = fadd double %70, %69
  store double %71, ptr %3, align 8, !tbaa !97
  %72 = load double, ptr %3, align 8, !tbaa !97
  %73 = fmul double %72, 6.000000e+01
  store double %73, ptr %3, align 8, !tbaa !97
  %74 = call noundef i32 @_ZNK6icu_778Calendar11internalGetE19UCalendarDateFields(ptr noundef nonnull align 8 dereferenceable(192) %7, i32 noundef 13)
  %75 = sitofp i32 %74 to double
  %76 = load double, ptr %3, align 8, !tbaa !97
  %77 = fadd double %76, %75
  store double %77, ptr %3, align 8, !tbaa !97
  %78 = load double, ptr %3, align 8, !tbaa !97
  %79 = fmul double %78, 1.000000e+03
  store double %79, ptr %3, align 8, !tbaa !97
  %80 = call noundef i32 @_ZNK6icu_778Calendar11internalGetE19UCalendarDateFields(ptr noundef nonnull align 8 dereferenceable(192) %7, i32 noundef 14)
  %81 = sitofp i32 %80 to double
  %82 = load double, ptr %3, align 8, !tbaa !97
  %83 = fadd double %82, %81
  store double %83, ptr %3, align 8, !tbaa !97
  %84 = load double, ptr %3, align 8, !tbaa !97
  call void @llvm.lifetime.end.p0(i64 4, ptr %6) #16
  call void @llvm.lifetime.end.p0(i64 4, ptr %5) #16
  call void @llvm.lifetime.end.p0(i64 4, ptr %4) #16
  call void @llvm.lifetime.end.p0(i64 8, ptr %3) #16
  ret double %84
}