; Function Attrs: mustprogress nofree norecurse nosync nounwind willreturn memory(argmem: read) uwtable
define noundef double @_ZN6icu_778Calendar18computeMillisInDayEv(ptr noundef nonnull readonly align 8 captures(none) dereferenceable(192) %0) local_unnamed_addr #18 align 2 {
  %2 = getelementptr inbounds nuw i8, ptr %0, i64 115
  %3 = load i8, ptr %2, align 1, !tbaa !47
  %4 = getelementptr inbounds nuw i8, ptr %0, i64 114
  %5 = load i8, ptr %4, align 2, !tbaa !47
  %6 = getelementptr inbounds nuw i8, ptr %0, i64 113
  %7 = load i8, ptr %6, align 1, !tbaa !47
  %. = tail call i8 @llvm.smax.i8(i8 %5, i8 %7)
  %8 = tail call i8 @llvm.smax.i8(i8 %., i8 %3)
  %.not = icmp eq i8 %8, 0
  br i1 %.not, label %25, label %9

9:                                                ; preds = %1
  %.not18 = icmp slt i8 %3, %.
  br i1 %.not18, label %14, label %10

10:                                               ; preds = %9
  %11 = getelementptr inbounds nuw i8, ptr %0, i64 52
  %12 = load i32, ptr %11, align 4, !tbaa !12
  %13 = sitofp i32 %12 to double
  br label %25

14:                                               ; preds = %9
  %15 = getelementptr inbounds nuw i8, ptr %0, i64 48
  %16 = load i32, ptr %15, align 8, !tbaa !12
  %17 = sitofp i32 %16 to double
  %18 = getelementptr inbounds nuw i8, ptr %0, i64 44
  %19 = load i32, ptr %18, align 4, !tbaa !12
  %20 = and i32 %19, 1
  %21 = icmp eq i32 %20, 0
  %22 = select i1 %21, i32 0, i32 12
  %23 = uitofp nneg i32 %22 to double
  %24 = fadd double %17, %23
  br label %25

25:                                               ; preds = %10, %14, %1
  %.0 = phi double [ %13, %10 ], [ %24, %14 ], [ 0.000000e+00, %1 ]
  %26 = fmul double %.0, 6.000000e+01
  %27 = getelementptr inbounds nuw i8, ptr %0, i64 56
  %28 = load i32, ptr %27, align 8, !tbaa !12
  %29 = sitofp i32 %28 to double
  %30 = fadd double %26, %29
  %31 = fmul double %30, 6.000000e+01
  %32 = getelementptr inbounds nuw i8, ptr %0, i64 60
  %33 = load i32, ptr %32, align 4, !tbaa !12
  %34 = sitofp i32 %33 to double
  %35 = fadd double %31, %34
  %36 = fmul double %35, 1.000000e+03
  %37 = getelementptr inbounds nuw i8, ptr %0, i64 64
  %38 = load i32, ptr %37, align 8, !tbaa !12
  %39 = sitofp i32 %38 to double
  %40 = fadd double %36, %39
  ret double %40
}